; Function Attrs: mustprogress uwtable
define void @_ZN7Imf_3_46HeaderC2ERKN9Imath_3_23BoxINS1_4Vec2IiEEEES7_fRKNS3_IfEEfNS_9LineOrderENS_11CompressionE(ptr noundef nonnull align 8 dereferenceable(49) initializes((0, 24)) %0, ptr noundef nonnull align 4 dereferenceable(16) %1, ptr noundef nonnull align 4 dereferenceable(16) %2, float noundef %3, ptr noundef nonnull align 4 dereferenceable(8) %4, float noundef %5, i32 noundef %6, i32 noundef %7) unnamed_addr #5 align 2 personality ptr @__gxx_personality_v0 {
  %9 = getelementptr inbounds nuw i8, ptr %0, i64 8
  %10 = getelementptr inbounds nuw i8, ptr %0, i64 24
  tail call void @llvm.memset.p0.i64(ptr noundef nonnull align 8 dereferenceable(24) %0, i8 0, i64 24, i1 false)
  store ptr %9, ptr %10, align 8, !tbaa !3
  %11 = getelementptr inbounds nuw i8, ptr %0, i64 32
  store ptr %9, ptr %11, align 8, !tbaa !12
  %12 = getelementptr inbounds nuw i8, ptr %0, i64 40
  store i64 0, ptr %12, align 8, !tbaa !13
  %13 = getelementptr inbounds nuw i8, ptr %0, i64 48
  store i8 0, ptr %13, align 8, !tbaa !14
  invoke void @_ZN7Imf_3_416staticInitializeEv()
          to label %14 unwind label %16

14:                                               ; preds = %8
  invoke fastcc void @_ZN7Imf_3_412_GLOBAL__N_110initializeERNS_6HeaderERKN9Imath_3_23BoxINS3_4Vec2IiEEEES9_fRKNS5_IfEEfNS_9LineOrderENS_11CompressionE(ptr noundef nonnull align 8 dereferenceable(49) %0, ptr noundef nonnull align 4 dereferenceable(16) %1, ptr noundef nonnull align 4 dereferenceable(16) %2, float noundef %3, ptr noundef nonnull align 4 dereferenceable(8) %4, float noundef %5, i32 noundef %6, i32 noundef %7)
          to label %15 unwind label %16

15:                                               ; preds = %14
  ret void

16:                                               ; preds = %14, %8
  %17 = landingpad { ptr, i32 }
          cleanup
  tail call void @_ZNSt3mapIN7Imf_3_44NameEPNS0_9AttributeESt4lessIS1_ESaISt4pairIKS1_S3_EEED2Ev(ptr noundef nonnull align 8 dereferenceable(48) %0) #29
  resume { ptr, i32 } %17
}